target datalayout = "e-m:e-p270:32:32-p271:32:32-p272:64:64-i64:64-i128:128-f80:128-n8:16:32:64-S128"
target triple = "x86_64-pc-linux-gnu"

%"class.boost::detail::shared_count" = type { ptr }
%"class.std::__cxx11::basic_string" = type { %"struct.std::__cxx11::basic_string<char>::_Alloc_hider", i64, %union.anon }
%"struct.std::__cxx11::basic_string<char>::_Alloc_hider" = type { ptr }
%union.anon = type { i64, [8 x i8] }
%"class.boost::filesystem::path" = type { %"class.std::__cxx11::basic_string" }
%"class.std::basic_ostream.base" = type { ptr }
%"class.std::basic_streambuf" = type { ptr, ptr, ptr, ptr, ptr, ptr, ptr, %"class.std::locale" }
%"class.std::locale" = type { ptr }
%"class.std::basic_ios" = type { %"class.std::ios_base", ptr, i8, i8, ptr, ptr, ptr, ptr }
%"class.std::ios_base" = type { ptr, i64, i64, i32, i32, i32, ptr, %"struct.std::ios_base::_Words", [8 x %"struct.std::ios_base::_Words"], i32, ptr, %"class.std::locale" }
%"struct.std::ios_base::_Words" = type { ptr, i64 }
%"class.boost::log::v2_mt_posix::aux::light_function" = type { ptr }
%union.pthread_mutex_t = type { %struct.__pthread_mutex_s }
%struct.__pthread_mutex_s = type { i32, i32, i32, i32, i32, i16, i16, %struct.__pthread_internal_list }
%struct.__pthread_internal_list = type { ptr, ptr }
%"struct.boost::log::v2_mt_posix::sinks::file::scan_result" = type { i64, %"class.boost::optional" }
%"class.boost::optional" = type { %"class.boost::optional_detail::tc_optional_base" }
%"class.boost::optional_detail::tc_optional_base" = type { i8, i32 }
%"class.boost::shared_ptr.131" = type { ptr, %"class.boost::detail::shared_count" }
%"class.boost::log::v2_mt_posix::aux::light_function.154" = type { ptr }
%"class.boost::log::v2_mt_posix::sinks::text_file_backend" = type { ptr }
%"struct.boost::log::v2_mt_posix::sinks::text_file_backend::implementation" = type { %"class.boost::filesystem::path", %"class.boost::filesystem::path", %"class.boost::log::v2_mt_posix::aux::light_function", %"class.boost::filesystem::path", %"class.boost::filesystem::path", %"class.boost::log::v2_mt_posix::aux::light_function", i32, i32, %"class.boost::filesystem::path", %"class.boost::filesystem::basic_ofstream", i64, %"class.boost::shared_ptr.131", %"class.boost::log::v2_mt_posix::aux::light_function.153", %"class.boost::log::v2_mt_posix::aux::light_function.153", i64, %"class.boost::log::v2_mt_posix::aux::light_function.154", i32, i8, i8, i8, i8 }
%"class.boost::filesystem::basic_ofstream" = type { %"class.std::basic_ofstream.base", %"class.std::basic_ios" }
%"class.std::basic_ofstream.base" = type { %"class.std::basic_ostream.base", %"class.std::basic_filebuf" }
%"class.std::basic_filebuf" = type { %"class.std::basic_streambuf", %union.pthread_mutex_t, %"class.std::__basic_file", i32, %struct.__mbstate_t, %struct.__mbstate_t, %struct.__mbstate_t, ptr, i64, i8, i8, i8, i8, ptr, ptr, i8, ptr, ptr, i64, ptr, ptr }
%"class.std::__basic_file" = type <{ ptr, i8, [7 x i8] }>
%struct.__mbstate_t = type { i32, %union.anon.152 }
%union.anon.152 = type { i32 }
%"class.boost::log::v2_mt_posix::aux::light_function.153" = type { ptr }

@.str.61 = private unnamed_addr constant [124 x i8] c"generated/home/dtcxzyw/WorkSpace/Projects/compilers/llvm-opt-benchmark/bench/boost/boost/libs/log/src/text_file_backend.cpp\00", align 1
@.str.71 = private unnamed_addr constant [26 x i8] c"File collector is not set\00", align 1

; Function Attrs: mustprogress nounwind uwtable
define linkonce_odr hidden noundef nonnull align 4 dereferenceable(4) ptr @_ZN5boost15optional_detail16tc_optional_baseIjE8get_implEv(ptr noundef nonnull align 4 dereferenceable(8) %0) #3 comdat align 2 {
  %2 = alloca ptr, align 8
  store ptr %0, ptr %2, align 8, !tbaa !3
  %3 = load ptr, ptr %2, align 8
  %4 = getelementptr inbounds nuw %"class.boost::optional_detail::tc_optional_base", ptr %3, i32 0, i32 1
  ret ptr %4
}

; Function Attrs: noinline noreturn nounwind uwtable
define linkonce_odr hidden void @__clang_call_terminate(ptr noundef %0) #1 comdat {
  %2 = call ptr @__cxa_begin_catch(ptr %0) #9
  call void @_ZSt9terminatev() #26
  unreachable
}

; Function Attrs: mustprogress nounwind uwtable
define linkonce_odr hidden noundef zeroext i1 @_ZNK5boost15optional_detail16tc_optional_baseIjE14is_initializedEv(ptr noundef nonnull align 4 dereferenceable(8) %0) #3 comdat align 2 {
  %2 = alloca ptr, align 8
  store ptr %0, ptr %2, align 8, !tbaa !3
  %3 = load ptr, ptr %2, align 8
  %4 = getelementptr inbounds nuw %"class.boost::optional_detail::tc_optional_base", ptr %3, i32 0, i32 0
  %5 = load i8, ptr %4, align 4, !tbaa !291, !range !20, !noundef !21
  %6 = trunc i8 %5 to i1
  ret i1 %6
}

; Function Attrs: mustprogress nounwind uwtable
define available_externally noundef i64 @_ZNKSt7__cxx1112basic_stringIcSt11char_traitsIcESaIcEE4sizeEv(ptr noundef nonnull align 8 dereferenceable(32) %0) #3 align 2 {
  %2 = alloca ptr, align 8
  store ptr %0, ptr %2, align 8, !tbaa !3
  %3 = load ptr, ptr %2, align 8
  %4 = getelementptr inbounds nuw %"class.std::__cxx11::basic_string", ptr %3, i32 0, i32 1
  %5 = load i64, ptr %4, align 8, !tbaa !80
  ret i64 %5
}

; Function Attrs: mustprogress uwtable
define linkonce_odr hidden noundef nonnull align 4 dereferenceable(4) ptr @_ZN5boost8optionalIjE3getEv(ptr noundef nonnull align 4 dereferenceable(8) %0) #4 comdat align 2 {
  %2 = alloca ptr, align 8
  store ptr %0, ptr %2, align 8, !tbaa !3
  %3 = load ptr, ptr %2, align 8
  %4 = call noundef nonnull align 4 dereferenceable(4) ptr @_ZN5boost15optional_detail16tc_optional_baseIjE8get_implEv(ptr noundef nonnull align 4 dereferenceable(8) %3)
  ret ptr %4
}

; Function Attrs: mustprogress nounwind uwtable
define linkonce_odr hidden noundef zeroext i1 @_ZNK5boost8optionalIjE9has_valueEv(ptr noundef nonnull align 4 dereferenceable(8) %0) #3 comdat align 2 personality ptr @__gxx_personality_v0 {
  %2 = alloca ptr, align 8
  store ptr %0, ptr %2, align 8, !tbaa !3
  %3 = load ptr, ptr %2, align 8
  %4 = invoke noundef zeroext i1 @_ZNK5boost15optional_detail16tc_optional_baseIjE14is_initializedEv(ptr noundef nonnull align 4 dereferenceable(8) %3)
          to label %5 unwind label %6

5:                                                ; preds = %1
  ret i1 %4

6:                                                ; preds = %1
  %7 = landingpad { ptr, i32 }
          catch ptr null
  %8 = extractvalue { ptr, i32 } %7, 0
  call void @__clang_call_terminate(ptr %8) #26
  unreachable
}

; Function Attrs: mustprogress nounwind uwtable
define available_externally noundef zeroext i1 @_ZNKSt7__cxx1112basic_stringIcSt11char_traitsIcESaIcEE5emptyEv(ptr noundef nonnull align 8 dereferenceable(32) %0) #3 align 2 {
  %2 = alloca ptr, align 8
  store ptr %0, ptr %2, align 8, !tbaa !3
  %3 = load ptr, ptr %2, align 8
  %4 = call noundef i64 @_ZNKSt7__cxx1112basic_stringIcSt11char_traitsIcESaIcEE4sizeEv(ptr noundef nonnull align 8 dereferenceable(32) %3) #9
  %5 = icmp eq i64 %4, 0
  ret i1 %5
}

; Function Attrs: mustprogress uwtable
define linkonce_odr hidden noundef nonnull align 4 dereferenceable(4) ptr @_ZNR5boost8optionalIjEdeEv(ptr noundef nonnull align 4 dereferenceable(8) %0) #4 comdat align 2 {
  %2 = alloca ptr, align 8
  store ptr %0, ptr %2, align 8, !tbaa !3
  %3 = load ptr, ptr %2, align 8
  %4 = call noundef nonnull align 4 dereferenceable(4) ptr @_ZN5boost8optionalIjE3getEv(ptr noundef nonnull align 4 dereferenceable(8) %3)
  ret ptr %4
}

; Function Attrs: mustprogress nounwind uwtable
define linkonce_odr hidden noundef zeroext i1 @_ZNK5boost8optionalIjEcvbEv(ptr noundef nonnull align 4 dereferenceable(8) %0) #3 comdat align 2 {
  %2 = alloca ptr, align 8
  store ptr %0, ptr %2, align 8, !tbaa !3
  %3 = load ptr, ptr %2, align 8
  %4 = call noundef zeroext i1 @_ZNK5boost8optionalIjE9has_valueEv(ptr noundef nonnull align 4 dereferenceable(8) %3) #9
  ret i1 %4
}

; Function Attrs: mustprogress nounwind uwtable
define linkonce_odr hidden noundef zeroext i1 @_ZNK5boost10filesystem4path5emptyEv(ptr noundef nonnull align 8 dereferenceable(32) %0) #3 comdat align 2 {
  %2 = alloca ptr, align 8
  store ptr %0, ptr %2, align 8, !tbaa !3
  %3 = load ptr, ptr %2, align 8
  %4 = getelementptr inbounds nuw %"class.boost::filesystem::path", ptr %3, i32 0, i32 0
  %5 = call noundef zeroext i1 @_ZNKSt7__cxx1112basic_stringIcSt11char_traitsIcESaIcEE5emptyEv(ptr noundef nonnull align 8 dereferenceable(32) %4) #9
  ret i1 %5
}

; Function Attrs: mustprogress nounwind uwtable
define linkonce_odr hidden noundef ptr @_ZNK5boost10shared_ptrINS_3log11v2_mt_posix5sinks4file9collectorEEptEv(ptr noundef nonnull align 8 dereferenceable(16) %0) #3 comdat align 2 {
  %2 = alloca ptr, align 8
  store ptr %0, ptr %2, align 8, !tbaa !3
  %3 = load ptr, ptr %2, align 8
  %4 = getelementptr inbounds nuw %"class.boost::shared_ptr.131", ptr %3, i32 0, i32 0
  %5 = load ptr, ptr %4, align 8, !tbaa !112
  ret ptr %5
}

; Function Attrs: mustprogress nounwind uwtable
define linkonce_odr hidden noundef zeroext i1 @_ZNK5boost10shared_ptrINS_3log11v2_mt_posix5sinks4file9collectorEEcvbEv(ptr noundef nonnull align 8 dereferenceable(16) %0) #3 comdat align 2 {
  %2 = alloca ptr, align 8
  store ptr %0, ptr %2, align 8, !tbaa !3
  %3 = load ptr, ptr %2, align 8
  %4 = getelementptr inbounds nuw %"class.boost::shared_ptr.131", ptr %3, i32 0, i32 0
  %5 = load ptr, ptr %4, align 8, !tbaa !112
  %6 = icmp ne ptr %5, null
  ret i1 %6
}

; Function Attrs: mustprogress uwtable
define noundef i64 @_ZN5boost3log11v2_mt_posix5sinks17text_file_backend14scan_for_filesENS2_4file11scan_methodEb(ptr noundef nonnull align 8 dereferenceable(8) %0, i32 noundef %1, i1 noundef zeroext %2) #4 align 2 {
  %4 = alloca ptr, align 8
  %5 = alloca i32, align 4
  %6 = alloca i8, align 1
  %7 = alloca %"struct.boost::log::v2_mt_posix::sinks::file::scan_result", align 8
  store ptr %0, ptr %4, align 8, !tbaa !3
  store i32 %1, ptr %5, align 4, !tbaa !95
  %8 = zext i1 %2 to i8
  store i8 %8, ptr %6, align 1, !tbaa !18
  %9 = load ptr, ptr %4, align 8
  %10 = getelementptr inbounds nuw %"class.boost::log::v2_mt_posix::sinks::text_file_backend", ptr %9, i32 0, i32 0
  %11 = load ptr, ptr %10, align 8, !tbaa !142
  %12 = getelementptr inbounds nuw %"struct.boost::log::v2_mt_posix::sinks::text_file_backend::implementation", ptr %11, i32 0, i32 11
  %13 = call noundef zeroext i1 @_ZNK5boost10shared_ptrINS_3log11v2_mt_posix5sinks4file9collectorEEcvbEv(ptr noundef nonnull align 8 dereferenceable(16) %12) #9
  %14 = xor i1 %13, true
  %15 = zext i1 %14 to i64
  %16 = call i64 @llvm.expect.i64(i64 %15, i64 0)
  %17 = icmp ne i64 %16, 0
  br i1 %17, label %18, label %19

18:                                               ; preds = %3
  call void @_ZN5boost3log11v2_mt_posix11setup_error6throw_EPKcmS4_(ptr noundef @.str.61, i64 noundef 1692, ptr noundef @.str.71) #27
  unreachable

19:                                               ; preds = %3
  call void @llvm.lifetime.start.p0(i64 16, ptr %7) #9
  %20 = getelementptr inbounds nuw %"class.boost::log::v2_mt_posix::sinks::text_file_backend", ptr %9, i32 0, i32 0
  %21 = load ptr, ptr %20, align 8, !tbaa !142
  %22 = getelementptr inbounds nuw %"struct.boost::log::v2_mt_posix::sinks::text_file_backend::implementation", ptr %21, i32 0, i32 11
  %23 = call noundef ptr @_ZNK5boost10shared_ptrINS_3log11v2_mt_posix5sinks4file9collectorEEptEv(ptr noundef nonnull align 8 dereferenceable(16) %22) #9
  %24 = load i32, ptr %5, align 4, !tbaa !95
  %25 = getelementptr inbounds nuw %"class.boost::log::v2_mt_posix::sinks::text_file_backend", ptr %9, i32 0, i32 0
  %26 = load ptr, ptr %25, align 8, !tbaa !142
  %27 = getelementptr inbounds nuw %"struct.boost::log::v2_mt_posix::sinks::text_file_backend::implementation", ptr %26, i32 0, i32 3
  %28 = call noundef zeroext i1 @_ZNK5boost10filesystem4path5emptyEv(ptr noundef nonnull align 8 dereferenceable(32) %27) #9
  br i1 %28, label %29, label %33

29:                                               ; preds = %19
  %30 = getelementptr inbounds nuw %"class.boost::log::v2_mt_posix::sinks::text_file_backend", ptr %9, i32 0, i32 0
  %31 = load ptr, ptr %30, align 8, !tbaa !142
  %32 = getelementptr inbounds nuw %"struct.boost::log::v2_mt_posix::sinks::text_file_backend::implementation", ptr %31, i32 0, i32 0
  br label %37

33:                                               ; preds = %19
  %34 = getelementptr inbounds nuw %"class.boost::log::v2_mt_posix::sinks::text_file_backend", ptr %9, i32 0, i32 0
  %35 = load ptr, ptr %34, align 8, !tbaa !142
  %36 = getelementptr inbounds nuw %"struct.boost::log::v2_mt_posix::sinks::text_file_backend::implementation", ptr %35, i32 0, i32 3
  br label %37

37:                                               ; preds = %33, %29
  %38 = phi ptr [ %32, %29 ], [ %36, %33 ]
  %39 = load ptr, ptr %23, align 8, !tbaa !46
  %40 = getelementptr inbounds ptr, ptr %39, i64 4
  %41 = load ptr, ptr %40, align 8
  %42 = call { i64, i64 } %41(ptr noundef nonnull align 8 dereferenceable(8) %23, i32 noundef %24, ptr noundef nonnull align 8 dereferenceable(32) %38)
  %43 = getelementptr inbounds nuw { i64, i64 }, ptr %7, i32 0, i32 0
  %44 = extractvalue { i64, i64 } %42, 0
  store i64 %44, ptr %43, align 8
  %45 = getelementptr inbounds nuw { i64, i64 }, ptr %7, i32 0, i32 1
  %46 = extractvalue { i64, i64 } %42, 1
  store i64 %46, ptr %45, align 8
  %47 = load i8, ptr %6, align 1, !tbaa !18, !range !20, !noundef !21
  %48 = trunc i8 %47 to i1
  br i1 %48, label %49, label %79

49:                                               ; preds = %37
  %50 = getelementptr inbounds nuw %"struct.boost::log::v2_mt_posix::sinks::file::scan_result", ptr %7, i32 0, i32 1
  %51 = call noundef zeroext i1 @_ZNK5boost8optionalIjEcvbEv(ptr noundef nonnull align 4 dereferenceable(8) %50) #9
  br i1 %51, label %52, label %79

52:                                               ; preds = %49
  %53 = getelementptr inbounds nuw %"class.boost::log::v2_mt_posix::sinks::text_file_backend", ptr %9, i32 0, i32 0
  %54 = load ptr, ptr %53, align 8, !tbaa !142
  %55 = getelementptr inbounds nuw %"struct.boost::log::v2_mt_posix::sinks::text_file_backend::implementation", ptr %54, i32 0, i32 19
  %56 = load i8, ptr %55, align 2, !tbaa !160, !range !20, !noundef !21
  %57 = trunc i8 %56 to i1
  br i1 %57, label %58, label %68

58:                                               ; preds = %52
  %59 = getelementptr inbounds nuw %"struct.boost::log::v2_mt_posix::sinks::file::scan_result", ptr %7, i32 0, i32 1
  %60 = call noundef nonnull align 4 dereferenceable(4) ptr @_ZNR5boost8optionalIjEdeEv(ptr noundef nonnull align 4 dereferenceable(8) %59)
  %61 = load i32, ptr %60, align 4, !tbaa !7
  %62 = getelementptr inbounds nuw %"class.boost::log::v2_mt_posix::sinks::text_file_backend", ptr %9, i32 0, i32 0
  %63 = load ptr, ptr %62, align 8, !tbaa !142
  %64 = getelementptr inbounds nuw %"struct.boost::log::v2_mt_posix::sinks::text_file_backend::implementation", ptr %63, i32 0, i32 6
  %65 = load i32, ptr %64, align 8, !tbaa !155
  %66 = sub i32 %61, %65
  %67 = icmp ult i32 %66, -2147483648
  br i1 %67, label %68, label %78

68:                                               ; preds = %58, %52
  %69 = getelementptr inbounds nuw %"struct.boost::log::v2_mt_posix::sinks::file::scan_result", ptr %7, i32 0, i32 1
  %70 = call noundef nonnull align 4 dereferenceable(4) ptr @_ZNR5boost8optionalIjEdeEv(ptr noundef nonnull align 4 dereferenceable(8) %69)
  %71 = load i32, ptr %70, align 4, !tbaa !7
  %72 = getelementptr inbounds nuw %"class.boost::log::v2_mt_posix::sinks::text_file_backend", ptr %9, i32 0, i32 0
  %73 = load ptr, ptr %72, align 8, !tbaa !142
  %74 = getelementptr inbounds nuw %"struct.boost::log::v2_mt_posix::sinks::text_file_backend::implementation", ptr %73, i32 0, i32 6
  store i32 %71, ptr %74, align 8, !tbaa !155
  %75 = getelementptr inbounds nuw %"class.boost::log::v2_mt_posix::sinks::text_file_backend", ptr %9, i32 0, i32 0
  %76 = load ptr, ptr %75, align 8, !tbaa !142
  %77 = getelementptr inbounds nuw %"struct.boost::log::v2_mt_posix::sinks::text_file_backend::implementation", ptr %76, i32 0, i32 19
  store i8 1, ptr %77, align 2, !tbaa !160
  br label %78

78:                                               ; preds = %68, %58
  br label %79

79:                                               ; preds = %78, %49, %37
  %80 = getelementptr inbounds nuw %"struct.boost::log::v2_mt_posix::sinks::file::scan_result", ptr %7, i32 0, i32 0
  %81 = load i64, ptr %80, align 8, !tbaa !97
  call void @llvm.lifetime.end.p0(i64 16, ptr %7) #9
  ret i64 %81
}