; Function Attrs: mustprogress uwtable
define noundef i64 @_ZN5boost3log11v2_mt_posix5sinks17text_file_backend14scan_for_filesENS2_4file11scan_methodEb(ptr nocapture noundef nonnull readonly align 8 dereferenceable(8) %0, i32 noundef %1, i1 noundef zeroext %2) local_unnamed_addr #4 align 2 personality ptr @__gxx_personality_v0 {
  %4 = load ptr, ptr %0, align 8
  %5 = getelementptr inbounds nuw i8, ptr %4, i64 704
  %6 = load ptr, ptr %5, align 8, !tbaa !191
  %.not = icmp eq ptr %6, null
  br i1 %.not, label %7, label %8, !prof !34

7:                                                ; preds = %3
  tail call void @_ZN5boost3log11v2_mt_posix11setup_error6throw_EPKcmS4_(ptr noundef nonnull @.str.61, i64 noundef 1692, ptr noundef nonnull @.str.71) #30
  unreachable

8:                                                ; preds = %3
  %9 = getelementptr inbounds nuw i8, ptr %4, i64 80
  %10 = load i64, ptr %9, align 8, !tbaa !16
  %11 = icmp eq i64 %10, 0
  %.idx = select i1 %11, i64 0, i64 72
  %12 = getelementptr inbounds nuw i8, ptr %4, i64 %.idx
  %13 = load ptr, ptr %6, align 8, !tbaa !49
  %14 = getelementptr inbounds i8, ptr %13, i64 32
  %15 = load ptr, ptr %14, align 8
  %16 = tail call { i64, i64 } %15(ptr noundef nonnull align 8 dereferenceable(8) %6, i32 noundef %1, ptr noundef nonnull align 8 dereferenceable(32) %12)
  %17 = extractvalue { i64, i64 } %16, 1
  br i1 %2, label %18, label %31

18:                                               ; preds = %8
  %19 = trunc i64 %17 to i1
  br i1 %19, label %20, label %31

20:                                               ; preds = %18
  %21 = load ptr, ptr %0, align 8, !tbaa !225
  %22 = getelementptr inbounds nuw i8, ptr %21, i64 758
  %23 = load i8, ptr %22, align 2, !tbaa !254, !range !57, !noundef !58
  %24 = trunc nuw i8 %23 to i1
  %.sroa.4.12.extract.shift = lshr i64 %17, 32
  %.sroa.4.12.extract.trunc = trunc nuw i64 %.sroa.4.12.extract.shift to i32
  br i1 %24, label %25, label %._crit_edge

25:                                               ; preds = %20
  %26 = getelementptr inbounds nuw i8, ptr %21, i64 144
  %27 = load i32, ptr %26, align 8, !tbaa !237
  %28 = sub i32 %.sroa.4.12.extract.trunc, %27
  %29 = icmp sgt i32 %28, -1
  br i1 %29, label %._crit_edge, label %31

._crit_edge:                                      ; preds = %20, %25
  %30 = getelementptr inbounds nuw i8, ptr %21, i64 144
  store i32 %.sroa.4.12.extract.trunc, ptr %30, align 8, !tbaa !237
  store i8 1, ptr %22, align 2, !tbaa !254
  br label %31

31:                                               ; preds = %25, %._crit_edge, %18, %8
  %32 = extractvalue { i64, i64 } %16, 0
  ret i64 %32
}